target datalayout = "e-m:e-p270:32:32-p271:32:32-p272:64:64-i64:64-i128:128-f80:128-n8:16:32:64-S128"
target triple = "x86_64-pc-linux-gnu"

%struct.ocsp_crl_id_st = type { ptr, ptr, ptr }

; Function Attrs: nounwind uwtable
define ptr @OCSP_crlID_new(ptr noundef %0, ptr noundef %1, ptr noundef %2) #0 {
  %4 = alloca ptr, align 8
  %5 = alloca ptr, align 8
  %6 = alloca ptr, align 8
  %7 = alloca ptr, align 8
  %8 = alloca ptr, align 8
  store ptr %0, ptr %4, align 8, !tbaa !47
  store ptr %1, ptr %5, align 8, !tbaa !54
  store ptr %2, ptr %6, align 8, !tbaa !47
  call void @llvm.lifetime.start.p0(i64 8, ptr %7) #5
  store ptr null, ptr %7, align 8, !tbaa !25
  call void @llvm.lifetime.start.p0(i64 8, ptr %8) #5
  store ptr null, ptr %8, align 8, !tbaa !56
  %9 = call ptr @OCSP_CRLID_new()
  store ptr %9, ptr %8, align 8, !tbaa !56
  %10 = icmp eq ptr %9, null
  br i1 %10, label %11, label %12

11:                                               ; preds = %3
  br label %70

12:                                               ; preds = %3
  %13 = load ptr, ptr %4, align 8, !tbaa !47
  %14 = icmp ne ptr %13, null
  br i1 %14, label %15, label %30

15:                                               ; preds = %12
  %16 = call ptr @ASN1_IA5STRING_new()
  %17 = load ptr, ptr %8, align 8, !tbaa !56
  %18 = getelementptr inbounds nuw %struct.ocsp_crl_id_st, ptr %17, i32 0, i32 0
  store ptr %16, ptr %18, align 8, !tbaa !58
  %19 = icmp eq ptr %16, null
  br i1 %19, label %20, label %21

20:                                               ; preds = %15
  br label %70

21:                                               ; preds = %15
  %22 = load ptr, ptr %8, align 8, !tbaa !56
  %23 = getelementptr inbounds nuw %struct.ocsp_crl_id_st, ptr %22, i32 0, i32 0
  %24 = load ptr, ptr %23, align 8, !tbaa !58
  %25 = load ptr, ptr %4, align 8, !tbaa !47
  %26 = call i32 @ASN1_STRING_set(ptr noundef %24, ptr noundef %25, i32 noundef -1)
  %27 = icmp ne i32 %26, 0
  br i1 %27, label %29, label %28

28:                                               ; preds = %21
  br label %70

29:                                               ; preds = %21
  br label %30

30:                                               ; preds = %29, %12
  %31 = load ptr, ptr %5, align 8, !tbaa !54
  %32 = icmp ne ptr %31, null
  br i1 %32, label %33, label %49

33:                                               ; preds = %30
  %34 = call ptr @ASN1_INTEGER_new()
  %35 = load ptr, ptr %8, align 8, !tbaa !56
  %36 = getelementptr inbounds nuw %struct.ocsp_crl_id_st, ptr %35, i32 0, i32 1
  store ptr %34, ptr %36, align 8, !tbaa !60
  %37 = icmp eq ptr %34, null
  br i1 %37, label %38, label %39

38:                                               ; preds = %33
  br label %70

39:                                               ; preds = %33
  %40 = load ptr, ptr %8, align 8, !tbaa !56
  %41 = getelementptr inbounds nuw %struct.ocsp_crl_id_st, ptr %40, i32 0, i32 1
  %42 = load ptr, ptr %41, align 8, !tbaa !60
  %43 = load ptr, ptr %5, align 8, !tbaa !54
  %44 = load i64, ptr %43, align 8, !tbaa !23
  %45 = call i32 @ASN1_INTEGER_set(ptr noundef %42, i64 noundef %44)
  %46 = icmp ne i32 %45, 0
  br i1 %46, label %48, label %47

47:                                               ; preds = %39
  br label %70

48:                                               ; preds = %39
  br label %49

49:                                               ; preds = %48, %30
  %50 = load ptr, ptr %6, align 8, !tbaa !47
  %51 = icmp ne ptr %50, null
  br i1 %51, label %52, label %67

52:                                               ; preds = %49
  %53 = call ptr @ASN1_GENERALIZEDTIME_new()
  %54 = load ptr, ptr %8, align 8, !tbaa !56
  %55 = getelementptr inbounds nuw %struct.ocsp_crl_id_st, ptr %54, i32 0, i32 2
  store ptr %53, ptr %55, align 8, !tbaa !61
  %56 = icmp eq ptr %53, null
  br i1 %56, label %57, label %58

57:                                               ; preds = %52
  br label %70

58:                                               ; preds = %52
  %59 = load ptr, ptr %8, align 8, !tbaa !56
  %60 = getelementptr inbounds nuw %struct.ocsp_crl_id_st, ptr %59, i32 0, i32 2
  %61 = load ptr, ptr %60, align 8, !tbaa !61
  %62 = load ptr, ptr %6, align 8, !tbaa !47
  %63 = call i32 @ASN1_GENERALIZEDTIME_set_string(ptr noundef %61, ptr noundef %62)
  %64 = icmp ne i32 %63, 0
  br i1 %64, label %66, label %65

65:                                               ; preds = %58
  br label %70

66:                                               ; preds = %58
  br label %67

67:                                               ; preds = %66, %49
  %68 = load ptr, ptr %8, align 8, !tbaa !56
  %69 = call ptr @X509V3_EXT_i2d(i32 noundef 367, i32 noundef 0, ptr noundef %68)
  store ptr %69, ptr %7, align 8, !tbaa !25
  br label %70

70:                                               ; preds = %67, %65, %57, %47, %38, %28, %20, %11
  %71 = load ptr, ptr %8, align 8, !tbaa !56
  call void @OCSP_CRLID_free(ptr noundef %71)
  %72 = load ptr, ptr %7, align 8, !tbaa !25
  call void @llvm.lifetime.end.p0(i64 8, ptr %8) #5
  call void @llvm.lifetime.end.p0(i64 8, ptr %7) #5
  ret ptr %72
}