; Function Attrs: nounwind uwtable
define ptr @OCSP_crlID_new(ptr noundef %0, ptr noundef readonly captures(address_is_null) %1, ptr noundef %2) local_unnamed_addr #0 {
  %4 = tail call ptr @OCSP_CRLID_new() #4
  %5 = icmp eq ptr %4, null
  br i1 %5, label %29, label %6

6:                                                ; preds = %3
  %.not = icmp eq ptr %0, null
  br i1 %.not, label %12, label %7

7:                                                ; preds = %6
  %8 = tail call ptr @ASN1_IA5STRING_new() #4
  store ptr %8, ptr %4, align 8, !tbaa !36
  %9 = icmp eq ptr %8, null
  br i1 %9, label %29, label %10

10:                                               ; preds = %7
  %11 = tail call i32 @ASN1_STRING_set(ptr noundef nonnull %8, ptr noundef nonnull %0, i32 noundef -1) #4
  %.not22 = icmp eq i32 %11, 0
  br i1 %.not22, label %29, label %12

12:                                               ; preds = %10, %6
  %.not23 = icmp eq ptr %1, null
  br i1 %.not23, label %20, label %13

13:                                               ; preds = %12
  %14 = tail call ptr @ASN1_INTEGER_new() #4
  %15 = getelementptr inbounds nuw i8, ptr %4, i64 8
  store ptr %14, ptr %15, align 8, !tbaa !38
  %16 = icmp eq ptr %14, null
  br i1 %16, label %29, label %17

17:                                               ; preds = %13
  %18 = load i64, ptr %1, align 8, !tbaa !39
  %19 = tail call i32 @ASN1_INTEGER_set(ptr noundef nonnull %14, i64 noundef %18) #4
  %.not24 = icmp eq i32 %19, 0
  br i1 %.not24, label %29, label %20

20:                                               ; preds = %17, %12
  %.not25 = icmp eq ptr %2, null
  br i1 %.not25, label %27, label %21

21:                                               ; preds = %20
  %22 = tail call ptr @ASN1_GENERALIZEDTIME_new() #4
  %23 = getelementptr inbounds nuw i8, ptr %4, i64 16
  store ptr %22, ptr %23, align 8, !tbaa !40
  %24 = icmp eq ptr %22, null
  br i1 %24, label %29, label %25

25:                                               ; preds = %21
  %26 = tail call i32 @ASN1_GENERALIZEDTIME_set_string(ptr noundef nonnull %22, ptr noundef nonnull %2) #4
  %.not26 = icmp eq i32 %26, 0
  br i1 %.not26, label %29, label %27

27:                                               ; preds = %25, %20
  %28 = tail call ptr @X509V3_EXT_i2d(i32 noundef 367, i32 noundef 0, ptr noundef nonnull %4) #4
  br label %29

29:                                               ; preds = %25, %21, %17, %13, %10, %7, %3, %27
  %.0 = phi ptr [ null, %3 ], [ null, %7 ], [ null, %13 ], [ null, %21 ], [ %28, %27 ], [ null, %25 ], [ null, %17 ], [ null, %10 ]
  tail call void @OCSP_CRLID_free(ptr noundef %4) #4
  ret ptr %.0
}